target datalayout = "e-m:e-p270:32:32-p271:32:32-p272:64:64-i64:64-i128:128-f80:128-n8:16:32:64-S128"
target triple = "x86_64-pc-linux-gnu"

@.str.33 = private unnamed_addr constant [3 x i8] c"rb\00", align 1
@.str.34 = private unnamed_addr constant [36 x i8] c"Cannot open file \22%s\22 for reading.\0A\00", align 1
@.str.35 = private unnamed_addr constant [61 x i8] c"The number of symbols (%d) does not match other lines (%d).\0A\00", align 1
@.str.36 = private unnamed_addr constant [50 x i8] c"The number of lines (%d) is not divisible by 64.\0A\00", align 1

; Function Attrs: nounwind uwtable
define i32 @Gia_ManSimParamRead(ptr noundef %0, ptr noundef %1, ptr noundef %2) #0 {
  %4 = alloca i32, align 4
  %5 = alloca ptr, align 8
  %6 = alloca ptr, align 8
  %7 = alloca ptr, align 8
  %8 = alloca i32, align 4
  %9 = alloca i32, align 4
  %10 = alloca i32, align 4
  %11 = alloca i32, align 4
  %12 = alloca i32, align 4
  %13 = alloca ptr, align 8
  %14 = alloca i32, align 4
  store ptr %0, ptr %5, align 8, !tbaa !48
  store ptr %1, ptr %6, align 8, !tbaa !53
  store ptr %2, ptr %7, align 8, !tbaa !53
  call void @llvm.lifetime.start.p0(i64 4, ptr %8) #15
  call void @llvm.lifetime.start.p0(i64 4, ptr %9) #15
  store i32 -1, ptr %9, align 4, !tbaa !10
  call void @llvm.lifetime.start.p0(i64 4, ptr %10) #15
  store i32 0, ptr %10, align 4, !tbaa !10
  call void @llvm.lifetime.start.p0(i64 4, ptr %11) #15
  store i32 0, ptr %11, align 4, !tbaa !10
  call void @llvm.lifetime.start.p0(i64 4, ptr %12) #15
  store i32 0, ptr %12, align 4, !tbaa !10
  call void @llvm.lifetime.start.p0(i64 8, ptr %13) #15
  %15 = load ptr, ptr %5, align 8, !tbaa !48
  %16 = call noalias ptr @fopen(ptr noundef %15, ptr noundef @.str.33)
  store ptr %16, ptr %13, align 8, !tbaa !54
  %17 = load ptr, ptr %13, align 8, !tbaa !54
  %18 = icmp eq ptr %17, null
  br i1 %18, label %19, label %22

19:                                               ; preds = %3
  %20 = load ptr, ptr %5, align 8, !tbaa !48
  %21 = call i32 (ptr, ...) @printf(ptr noundef @.str.34, ptr noundef %20)
  store i32 0, ptr %4, align 4
  store i32 1, ptr %14, align 4
  br label %89

22:                                               ; preds = %3
  br label %23

23:                                               ; preds = %68, %67, %60, %22
  %24 = load ptr, ptr %13, align 8, !tbaa !54
  %25 = call i32 @fgetc(ptr noundef %24)
  store i32 %25, ptr %8, align 4, !tbaa !10
  %26 = icmp ne i32 %25, -1
  br i1 %26, label %27, label %71

27:                                               ; preds = %23
  %28 = load i32, ptr %8, align 4, !tbaa !10
  %29 = icmp eq i32 %28, 46
  br i1 %29, label %30, label %31

30:                                               ; preds = %27
  store i32 1, ptr %12, align 4, !tbaa !10
  br label %31

31:                                               ; preds = %30, %27
  %32 = load i32, ptr %8, align 4, !tbaa !10
  %33 = icmp eq i32 %32, 10
  br i1 %33, label %34, label %57

34:                                               ; preds = %31
  %35 = load i32, ptr %12, align 4, !tbaa !10
  %36 = icmp ne i32 %35, 0
  br i1 %36, label %56, label %37

37:                                               ; preds = %34
  %38 = load i32, ptr %9, align 4, !tbaa !10
  %39 = icmp eq i32 %38, -1
  br i1 %39, label %40, label %42

40:                                               ; preds = %37
  %41 = load i32, ptr %11, align 4, !tbaa !10
  store i32 %41, ptr %9, align 4, !tbaa !10
  br label %53

42:                                               ; preds = %37
  %43 = load i32, ptr %9, align 4, !tbaa !10
  %44 = load i32, ptr %11, align 4, !tbaa !10
  %45 = icmp ne i32 %43, %44
  br i1 %45, label %46, label %52

46:                                               ; preds = %42
  %47 = load i32, ptr %11, align 4, !tbaa !10
  %48 = load i32, ptr %9, align 4, !tbaa !10
  %49 = call i32 (ptr, ...) @printf(ptr noundef @.str.35, i32 noundef %47, i32 noundef %48)
  %50 = load ptr, ptr %13, align 8, !tbaa !54
  %51 = call i32 @fclose(ptr noundef %50)
  store i32 0, ptr %4, align 4
  store i32 1, ptr %14, align 4
  br label %89

52:                                               ; preds = %42
  br label %53

53:                                               ; preds = %52, %40
  store i32 0, ptr %11, align 4, !tbaa !10
  %54 = load i32, ptr %10, align 4, !tbaa !10
  %55 = add nsw i32 %54, 1
  store i32 %55, ptr %10, align 4, !tbaa !10
  br label %56

56:                                               ; preds = %53, %34
  store i32 0, ptr %12, align 4, !tbaa !10
  br label %57

57:                                               ; preds = %56, %31
  %58 = load i32, ptr %12, align 4, !tbaa !10
  %59 = icmp ne i32 %58, 0
  br i1 %59, label %60, label %61

60:                                               ; preds = %57
  br label %23, !llvm.loop !94

61:                                               ; preds = %57
  %62 = load i32, ptr %8, align 4, !tbaa !10
  %63 = icmp ne i32 %62, 48
  br i1 %63, label %64, label %68

64:                                               ; preds = %61
  %65 = load i32, ptr %8, align 4, !tbaa !10
  %66 = icmp ne i32 %65, 49
  br i1 %66, label %67, label %68

67:                                               ; preds = %64
  br label %23, !llvm.loop !94

68:                                               ; preds = %64, %61
  %69 = load i32, ptr %11, align 4, !tbaa !10
  %70 = add nsw i32 %69, 1
  store i32 %70, ptr %11, align 4, !tbaa !10
  br label %23, !llvm.loop !94

71:                                               ; preds = %23
  %72 = load i32, ptr %10, align 4, !tbaa !10
  %73 = srem i32 %72, 64
  %74 = icmp sgt i32 %73, 0
  br i1 %74, label %75, label %80

75:                                               ; preds = %71
  %76 = load i32, ptr %10, align 4, !tbaa !10
  %77 = call i32 (ptr, ...) @printf(ptr noundef @.str.36, i32 noundef %76)
  %78 = load ptr, ptr %13, align 8, !tbaa !54
  %79 = call i32 @fclose(ptr noundef %78)
  store i32 0, ptr %4, align 4
  store i32 1, ptr %14, align 4
  br label %89

80:                                               ; preds = %71
  %81 = load i32, ptr %9, align 4, !tbaa !10
  %82 = sub nsw i32 %81, 1
  %83 = load ptr, ptr %6, align 8, !tbaa !53
  store i32 %82, ptr %83, align 4, !tbaa !10
  %84 = load i32, ptr %10, align 4, !tbaa !10
  %85 = sdiv i32 %84, 64
  %86 = load ptr, ptr %7, align 8, !tbaa !53
  store i32 %85, ptr %86, align 4, !tbaa !10
  %87 = load ptr, ptr %13, align 8, !tbaa !54
  %88 = call i32 @fclose(ptr noundef %87)
  store i32 1, ptr %4, align 4
  store i32 1, ptr %14, align 4
  br label %89

89:                                               ; preds = %80, %75, %46, %19
  call void @llvm.lifetime.end.p0(i64 8, ptr %13) #15
  call void @llvm.lifetime.end.p0(i64 4, ptr %12) #15
  call void @llvm.lifetime.end.p0(i64 4, ptr %11) #15
  call void @llvm.lifetime.end.p0(i64 4, ptr %10) #15
  call void @llvm.lifetime.end.p0(i64 4, ptr %9) #15
  call void @llvm.lifetime.end.p0(i64 4, ptr %8) #15
  %90 = load i32, ptr %4, align 4
  ret i32 %90
}