; Function Attrs: nofree nounwind uwtable
define range(i32 0, 2) i32 @Gia_ManSimParamRead(ptr noundef %0, ptr noundef writeonly captures(none) %1, ptr noundef writeonly captures(none) %2) local_unnamed_addr #7 {
  %4 = tail call noalias ptr @fopen(ptr noundef %0, ptr noundef nonnull @.str.33)
  %5 = icmp eq ptr %4, null
  br i1 %5, label %6, label %.critedge.outer

6:                                                ; preds = %3
  %7 = tail call i32 (ptr, ...) @printf(ptr noundef nonnull dereferenceable(1) @.str.34, ptr noundef %0)
  br label %31

.critedge:                                        ; preds = %.critedge.backedge, %.critedge.outer
  %.not39 = phi i1 [ true, %.critedge.outer ], [ false, %.critedge.backedge ]
  %8 = tail call i32 @fgetc(ptr noundef nonnull %4)
  switch i32 %8, label %.thread.fold.split [
    i32 -1, label %21
    i32 46, label %.critedge.backedge
    i32 10, label %9
  ]

9:                                                ; preds = %.critedge
  br i1 %.not39, label %10, label %.thread43

10:                                               ; preds = %9
  %11 = icmp eq i32 %.035.ph, -1
  br i1 %11, label %16, label %12

12:                                               ; preds = %10
  %.not40 = icmp eq i32 %.035.ph, %.029.ph
  br i1 %.not40, label %16, label %13

13:                                               ; preds = %12
  %14 = tail call i32 (ptr, ...) @printf(ptr noundef nonnull dereferenceable(1) @.str.35, i32 noundef %.029.ph, i32 noundef %.035.ph)
  %15 = tail call i32 @fclose(ptr noundef nonnull %4)
  br label %31

16:                                               ; preds = %10, %12
  %.3 = phi i32 [ %.035.ph, %12 ], [ %.029.ph, %10 ]
  %17 = add nsw i32 %.032.ph, 1
  br label %.thread43

.thread.fold.split:                               ; preds = %.critedge
  br i1 %.not39, label %.thread43.loopexit, label %.critedge.backedge

.critedge.backedge:                               ; preds = %.thread.fold.split, %.critedge
  br label %.critedge, !llvm.loop !86

.thread43.loopexit:                               ; preds = %.thread.fold.split
  %18 = and i32 %8, -2
  %19 = icmp eq i32 %18, 48
  %20 = zext i1 %19 to i32
  br label %.thread43

.thread43:                                        ; preds = %.thread43.loopexit, %9, %16
  %or.cond = phi i32 [ 0, %16 ], [ 0, %9 ], [ %20, %.thread43.loopexit ]
  %.13051 = phi i32 [ 0, %16 ], [ %.029.ph, %9 ], [ %.029.ph, %.thread43.loopexit ]
  %.13350 = phi i32 [ %17, %16 ], [ %.032.ph, %9 ], [ %.032.ph, %.thread43.loopexit ]
  %.13649 = phi i32 [ %.3, %16 ], [ %.035.ph, %9 ], [ %.035.ph, %.thread43.loopexit ]
  %spec.select = add nsw i32 %.13051, %or.cond
  br label %.critedge.outer, !llvm.loop !86

.critedge.outer:                                  ; preds = %3, %.thread43
  %.035.ph = phi i32 [ %.13649, %.thread43 ], [ -1, %3 ]
  %.032.ph = phi i32 [ %.13350, %.thread43 ], [ 0, %3 ]
  %.029.ph = phi i32 [ %spec.select, %.thread43 ], [ 0, %3 ]
  br label %.critedge

21:                                               ; preds = %.critedge
  %22 = and i32 %.032.ph, -2147483585
  %23 = icmp sgt i32 %22, 0
  br i1 %23, label %24, label %27

24:                                               ; preds = %21
  %25 = tail call i32 (ptr, ...) @printf(ptr noundef nonnull dereferenceable(1) @.str.36, i32 noundef %.032.ph)
  %26 = tail call i32 @fclose(ptr noundef nonnull %4)
  br label %31

27:                                               ; preds = %21
  %28 = add nsw i32 %.035.ph, -1
  store i32 %28, ptr %1, align 4, !tbaa !19
  %29 = sdiv i32 %.032.ph, 64
  store i32 %29, ptr %2, align 4, !tbaa !19
  %30 = tail call i32 @fclose(ptr noundef nonnull %4)
  br label %31

31:                                               ; preds = %27, %24, %13, %6
  %.0 = phi i32 [ 0, %6 ], [ 0, %13 ], [ 0, %24 ], [ 1, %27 ]
  ret i32 %.0
}